; Function Attrs: mustprogress nounwind uwtable
define void @_ZN5arrow8internal22FloatToStringFormatterD2Ev(ptr noundef nonnull align 8 captures(none) dereferenceable(8) %0) unnamed_addr #3 align 2 personality ptr @__gxx_personality_v0 {
  %2 = load ptr, ptr %0, align 8, !tbaa !18
  %.not.i = icmp eq ptr %2, null
  br i1 %.not.i, label %_ZNSt10unique_ptrIN5arrow8internal22FloatToStringFormatter4ImplESt14default_deleteIS3_EED2Ev.exit, label %_ZNKSt14default_deleteIN5arrow8internal22FloatToStringFormatter4ImplEEclEPS3_.exit.i

_ZNKSt14default_deleteIN5arrow8internal22FloatToStringFormatter4ImplEEclEPS3_.exit.i: ; preds = %1
  tail call void @_ZdlPvm(ptr noundef nonnull %2, i64 noundef 48) #7
  br label %_ZNSt10unique_ptrIN5arrow8internal22FloatToStringFormatter4ImplESt14default_deleteIS3_EED2Ev.exit

_ZNSt10unique_ptrIN5arrow8internal22FloatToStringFormatter4ImplESt14default_deleteIS3_EED2Ev.exit: ; preds = %1, %_ZNKSt14default_deleteIN5arrow8internal22FloatToStringFormatter4ImplEEclEPS3_.exit.i
  store ptr null, ptr %0, align 8, !tbaa !18
  ret void
}